(dp0
S'SEQUEST'
p1
(dp2
S'fields'
p3
(lp4
S'ScanF'
p5
aS'Obs M+H'
p6
aS'PPM'
p7
aS'XCorr'
p8
aS'Reference'
p9
aS'Peptide'
p10
asS'cols'
p11
(lp12
g8
ag10
ag9
aS'PPM'
p13
aS'Obs M+H'
p14
asS'fieldmap'
p15
(dp16
S'Obs M+H'
p17
g17
sg13
g13
sg9
g9
sg8
g8
sssS'PepNovo'
p18
(dp19
S'fields'
p20
(lp21
S'ScanNum'
p22
aS'RnkScr'
p23
aS'PnvScr'
p24
aS'N-Gap'
p25
aS'C-Gap'
p26
aS'[M+H]'
p27
aS'RnkScrSequence'
p28
aS'PnvScrSequence'
p29
aS'SearchTime'
p30
asS'cols'
p31
(lp32
S'Rank Score'
p33
aS'Peptide'
p34
aS'Obs M+H'
p35
aS'Sequencing Time'
p36
asS'fieldmap'
p37
(dp38
S'RnkScr'
p39
S'Rank Score'
p40
sg30
S'Sequencing Time'
p41
sg24
S'PepNovo Score'
p42
sS'[M+H]'
p43
S'Obs M+H'
p44
sssS'PEAKS'
p45
(dp46
S'fields'
p47
(lp48
S'ScanF'
p49
aS'Obs M+H'
p50
aS'Peptide'
p51
aS'TLC'
p52
aS'ALC (%)'
p53
asS'cols'
p54
(lp55
S'Obs M+H'
p56
ag51
ag52
aS'ALC (%)'
p57
asS'fieldmap'
p58
(dp59
g52
g52
sS'Obs M+H'
p60
g60
sS'ALC (%)'
p61
g61
sssS'pNovo'
p62
(dp63
S'fields'
p64
(lp65
S'ScanF'
p66
aS'Obs M+H'
p67
aS'Peptide'
p68
aS'pNovo Score'
p69
asS'cols'
p70
(lp71
g67
ag68
ag69
asS'fieldmap'
p72
(dp73
S'Obs M+H'
p74
g74
sS'pNovo Score'
p75
g75
sssS'infoMap'
p76
(dp77
S'PepNovo'
p78
(dp79
S'Obs M+H'
p80
g80
sS'Score'
p81
S'Rank Score'
p82
sS'Peptide'
p83
g83
sS'Reference'
p84
g84
ssS'SEQUEST'
p85
(dp86
S'Obs M+H'
p87
g87
sS'Score'
p88
S'XCorr'
p89
sS'Peptide'
p90
g90
sS'Reference'
p91
g91
ssS'pNovo'
p92
(dp93
S'Obs M+H'
p94
g94
sS'Score'
p95
S'pNovo Score'
p96
sS'Peptide'
p97
g97
sS'Reference'
p98
g98
ssS'LADS'
p99
(dp100
S'Obs M+H'
p101
g101
sS'Score'
p102
S'PScore'
p103
sS'Peptide'
p104
g104
sS'Reference'
p105
S'Reference'
p106
ssS'MASCOT'
p107
(dp108
S'Obs M+H'
p109
g109
sg102
S'Ion Score'
p110
sg104
g104
sg105
g105
ssS'PEAKS'
p111
(dp112
S'Obs M+H'
p113
g113
sS'Score'
p114
S'ALC (%)'
p115
sS'Peptide'
p116
g116
sS'Reference'
p117
g117
sssS'LADS'
p118
(dp119
S'fields'
p120
(lp121
S'LIGHT SCAN'
p122
aS'HEAVY SCAN'
p123
aS'SEQ'
p124
aS'SCORE'
p125
aS'AMBIGUOUS EDGES'
p126
aS'M+H'
p127
aS'EPSILON'
p128
aS'SHARED PEAKS RATIO'
p129
aS'SEQUENCING TIME'
p130
aS'NUM PATHS'
p131
aS'AA EDGES'
p132
aS'NUM AMBIG EDGES'
p133
aS'PAIR CONFIGURATION'
p134
asS'cols'
p135
(lp136
S'PScore'
p137
aS'Peptide'
p138
aS'Paired Spectrum'
p139
aS'Ambiguous Edges'
p140
aS'Epsilon'
p141
aS'Shared Peaks Ratio'
p142
aS'Sequencing Time'
p143
aS'Obs M+H'
p144
aS'Num Ambig Edges'
p145
aS'Pair Configuration'
p146
asS'fieldmap'
p147
(dp148
S'SHARED PEAKS RATIO'
p149
S'Shared Peaks Ratio'
p150
sS'NUM AMBIG EDGES'
p151
S'Num Ambig Edges'
p152
sg128
g141
sS'SEQUENCING TIME'
p153
S'Sequencing Time'
p154
sS'M+H'
p155
S'Obs M+H'
p156
sS'PAIR CONFIGURATION'
p157
S'Pair Configuration'
p158
sS'AMBIGUOUS EDGES'
p159
S'Ambiguous Edges'
p160
sssS'MASCOT'
p161
(dp162
S'fields'
p163
(lp164
S'ScanF'
p165
aS'Obs M+H'
p166
aS'PPM'
p167
aS'Ion Score'
p168
aS'h-factor'
p169
aS'Reference'
p170
aS'Peptide'
p171
asS'cols'
p172
(lp173
S'Ion Score'
p174
aS'h-factor'
p175
ag171
ag170
ag167
aS'Obs M+H'
p176
asS'fieldmap'
p177
(dp178
S'h-factor'
p179
g179
sS'Obs M+H'
p180
g180
sg167
g167
sg170
g170
sS'Ion Score'
p181
g181
sss.